; ModuleID = '64/1894.c'
source_filename = "64/1894.c"
target datalayout = "e-m:e-p270:32:32-p271:32:32-p272:64:64-i64:64-f80:128-n8:16:32:64-S128"
target triple = "x86_64-pc-linux-gnu"

@.str = private unnamed_addr constant [3 x i8] c"%d\00", align 1
@.str.1 = private unnamed_addr constant [7 x i8] c"%d%d%d\00", align 1
@.str.2 = private unnamed_addr constant [29 x i8] c"(%d,%d,%d)-(%d,%d,%d)=%.2lf\0A\00", align 1

; Function Attrs: noinline nounwind uwtable
define dso_local i32 @main() #0 {
  %1 = alloca i32, align 4
  %2 = alloca i32, align 4
  %3 = alloca i32, align 4
  %4 = alloca i32, align 4
  %5 = alloca i32, align 4
  %6 = alloca i32, align 4
  %7 = alloca [101 x i32], align 16
  %8 = alloca [101 x i32], align 16
  %9 = alloca [101 x i32], align 16
  %10 = alloca [46 x i32], align 16
  %11 = alloca [46 x i32], align 16
  %12 = alloca [46 x double], align 16
  %13 = alloca double, align 8
  store i32 0, i32* %1, align 4
  %14 = call i32 (i8*, ...) @__isoc99_scanf(i8* getelementptr inbounds ([3 x i8], [3 x i8]* @.str, i64 0, i64 0), i32* %2)
  store i32 1, i32* %3, align 4
  br label %15

15:                                               ; preds = %30, %0
  %16 = load i32, i32* %3, align 4
  %17 = load i32, i32* %2, align 4
  %18 = icmp sle i32 %16, %17
  br i1 %18, label %19, label %33

19:                                               ; preds = %15
  %20 = load i32, i32* %3, align 4
  %21 = sext i32 %20 to i64
  %22 = getelementptr inbounds [101 x i32], [101 x i32]* %7, i64 0, i64 %21
  %23 = load i32, i32* %3, align 4
  %24 = sext i32 %23 to i64
  %25 = getelementptr inbounds [101 x i32], [101 x i32]* %8, i64 0, i64 %24
  %26 = load i32, i32* %3, align 4
  %27 = sext i32 %26 to i64
  %28 = getelementptr inbounds [101 x i32], [101 x i32]* %9, i64 0, i64 %27
  %29 = call i32 (i8*, ...) @__isoc99_scanf(i8* getelementptr inbounds ([7 x i8], [7 x i8]* @.str.1, i64 0, i64 0), i32* %22, i32* %25, i32* %28)
  br label %30

30:                                               ; preds = %19
  %31 = load i32, i32* %3, align 4
  %32 = add nsw i32 %31, 1
  store i32 %32, i32* %3, align 4
  br label %15

33:                                               ; preds = %15
  store i32 0, i32* %5, align 4
  store i32 1, i32* %3, align 4
  br label %34

34:                                               ; preds = %133, %33
  %35 = load i32, i32* %3, align 4
  %36 = load i32, i32* %2, align 4
  %37 = sub nsw i32 %36, 1
  %38 = icmp sle i32 %35, %37
  br i1 %38, label %39, label %136

39:                                               ; preds = %34
  %40 = load i32, i32* %3, align 4
  %41 = add nsw i32 %40, 1
  store i32 %41, i32* %4, align 4
  br label %42

42:                                               ; preds = %129, %39
  %43 = load i32, i32* %4, align 4
  %44 = load i32, i32* %2, align 4
  %45 = icmp sle i32 %43, %44
  br i1 %45, label %46, label %132

46:                                               ; preds = %42
  %47 = load i32, i32* %5, align 4
  %48 = add nsw i32 %47, 1
  store i32 %48, i32* %5, align 4
  %49 = load i32, i32* %3, align 4
  %50 = sext i32 %49 to i64
  %51 = getelementptr inbounds [101 x i32], [101 x i32]* %7, i64 0, i64 %50
  %52 = load i32, i32* %51, align 4
  %53 = load i32, i32* %4, align 4
  %54 = sext i32 %53 to i64
  %55 = getelementptr inbounds [101 x i32], [101 x i32]* %7, i64 0, i64 %54
  %56 = load i32, i32* %55, align 4
  %57 = sub nsw i32 %52, %56
  %58 = sitofp i32 %57 to double
  %59 = fmul double 1.000000e+00, %58
  %60 = load i32, i32* %3, align 4
  %61 = sext i32 %60 to i64
  %62 = getelementptr inbounds [101 x i32], [101 x i32]* %7, i64 0, i64 %61
  %63 = load i32, i32* %62, align 4
  %64 = load i32, i32* %4, align 4
  %65 = sext i32 %64 to i64
  %66 = getelementptr inbounds [101 x i32], [101 x i32]* %7, i64 0, i64 %65
  %67 = load i32, i32* %66, align 4
  %68 = sub nsw i32 %63, %67
  %69 = sitofp i32 %68 to double
  %70 = fmul double %59, %69
  %71 = load i32, i32* %3, align 4
  %72 = sext i32 %71 to i64
  %73 = getelementptr inbounds [101 x i32], [101 x i32]* %8, i64 0, i64 %72
  %74 = load i32, i32* %73, align 4
  %75 = load i32, i32* %4, align 4
  %76 = sext i32 %75 to i64
  %77 = getelementptr inbounds [101 x i32], [101 x i32]* %8, i64 0, i64 %76
  %78 = load i32, i32* %77, align 4
  %79 = sub nsw i32 %74, %78
  %80 = sitofp i32 %79 to double
  %81 = fmul double 1.000000e+00, %80
  %82 = load i32, i32* %3, align 4
  %83 = sext i32 %82 to i64
  %84 = getelementptr inbounds [101 x i32], [101 x i32]* %8, i64 0, i64 %83
  %85 = load i32, i32* %84, align 4
  %86 = load i32, i32* %4, align 4
  %87 = sext i32 %86 to i64
  %88 = getelementptr inbounds [101 x i32], [101 x i32]* %8, i64 0, i64 %87
  %89 = load i32, i32* %88, align 4
  %90 = sub nsw i32 %85, %89
  %91 = sitofp i32 %90 to double
  %92 = fmul double %81, %91
  %93 = fadd double %70, %92
  %94 = load i32, i32* %3, align 4
  %95 = sext i32 %94 to i64
  %96 = getelementptr inbounds [101 x i32], [101 x i32]* %9, i64 0, i64 %95
  %97 = load i32, i32* %96, align 4
  %98 = load i32, i32* %4, align 4
  %99 = sext i32 %98 to i64
  %100 = getelementptr inbounds [101 x i32], [101 x i32]* %9, i64 0, i64 %99
  %101 = load i32, i32* %100, align 4
  %102 = sub nsw i32 %97, %101
  %103 = sitofp i32 %102 to double
  %104 = fmul double 1.000000e+00, %103
  %105 = load i32, i32* %3, align 4
  %106 = sext i32 %105 to i64
  %107 = getelementptr inbounds [101 x i32], [101 x i32]* %9, i64 0, i64 %106
  %108 = load i32, i32* %107, align 4
  %109 = load i32, i32* %4, align 4
  %110 = sext i32 %109 to i64
  %111 = getelementptr inbounds [101 x i32], [101 x i32]* %9, i64 0, i64 %110
  %112 = load i32, i32* %111, align 4
  %113 = sub nsw i32 %108, %112
  %114 = sitofp i32 %113 to double
  %115 = fmul double %104, %114
  %116 = fadd double %93, %115
  %117 = call double @sqrt(double %116) #3
  %118 = load i32, i32* %5, align 4
  %119 = sext i32 %118 to i64
  %120 = getelementptr inbounds [46 x double], [46 x double]* %12, i64 0, i64 %119
  store double %117, double* %120, align 8
  %121 = load i32, i32* %3, align 4
  %122 = load i32, i32* %5, align 4
  %123 = sext i32 %122 to i64
  %124 = getelementptr inbounds [46 x i32], [46 x i32]* %10, i64 0, i64 %123
  store i32 %121, i32* %124, align 4
  %125 = load i32, i32* %4, align 4
  %126 = load i32, i32* %5, align 4
  %127 = sext i32 %126 to i64
  %128 = getelementptr inbounds [46 x i32], [46 x i32]* %11, i64 0, i64 %127
  store i32 %125, i32* %128, align 4
  br label %129

129:                                              ; preds = %46
  %130 = load i32, i32* %4, align 4
  %131 = add nsw i32 %130, 1
  store i32 %131, i32* %4, align 4
  br label %42

132:                                              ; preds = %42
  br label %133

133:                                              ; preds = %132
  %134 = load i32, i32* %3, align 4
  %135 = add nsw i32 %134, 1
  store i32 %135, i32* %3, align 4
  br label %34

136:                                              ; preds = %34
  store i32 1, i32* %3, align 4
  br label %137

137:                                              ; preds = %216, %136
  %138 = load i32, i32* %3, align 4
  %139 = load i32, i32* %5, align 4
  %140 = icmp sle i32 %138, %139
  br i1 %140, label %141, label %219

141:                                              ; preds = %137
  store i32 1, i32* %4, align 4
  br label %142

142:                                              ; preds = %212, %141
  %143 = load i32, i32* %4, align 4
  %144 = load i32, i32* %5, align 4
  %145 = load i32, i32* %3, align 4
  %146 = sub nsw i32 %144, %145
  %147 = icmp sle i32 %143, %146
  br i1 %147, label %148, label %215

148:                                              ; preds = %142
  %149 = load i32, i32* %4, align 4
  %150 = sext i32 %149 to i64
  %151 = getelementptr inbounds [46 x double], [46 x double]* %12, i64 0, i64 %150
  %152 = load double, double* %151, align 8
  %153 = load i32, i32* %4, align 4
  %154 = add nsw i32 %153, 1
  %155 = sext i32 %154 to i64
  %156 = getelementptr inbounds [46 x double], [46 x double]* %12, i64 0, i64 %155
  %157 = load double, double* %156, align 8
  %158 = fcmp olt double %152, %157
  br i1 %158, label %159, label %211

159:                                              ; preds = %148
  %160 = load i32, i32* %4, align 4
  %161 = sext i32 %160 to i64
  %162 = getelementptr inbounds [46 x double], [46 x double]* %12, i64 0, i64 %161
  %163 = load double, double* %162, align 8
  store double %163, double* %13, align 8
  %164 = load i32, i32* %4, align 4
  %165 = add nsw i32 %164, 1
  %166 = sext i32 %165 to i64
  %167 = getelementptr inbounds [46 x double], [46 x double]* %12, i64 0, i64 %166
  %168 = load double, double* %167, align 8
  %169 = load i32, i32* %4, align 4
  %170 = sext i32 %169 to i64
  %171 = getelementptr inbounds [46 x double], [46 x double]* %12, i64 0, i64 %170
  store double %168, double* %171, align 8
  %172 = load double, double* %13, align 8
  %173 = load i32, i32* %4, align 4
  %174 = add nsw i32 %173, 1
  %175 = sext i32 %174 to i64
  %176 = getelementptr inbounds [46 x double], [46 x double]* %12, i64 0, i64 %175
  store double %172, double* %176, align 8
  %177 = load i32, i32* %4, align 4
  %178 = sext i32 %177 to i64
  %179 = getelementptr inbounds [46 x i32], [46 x i32]* %10, i64 0, i64 %178
  %180 = load i32, i32* %179, align 4
  store i32 %180, i32* %6, align 4
  %181 = load i32, i32* %4, align 4
  %182 = add nsw i32 %181, 1
  %183 = sext i32 %182 to i64
  %184 = getelementptr inbounds [46 x i32], [46 x i32]* %10, i64 0, i64 %183
  %185 = load i32, i32* %184, align 4
  %186 = load i32, i32* %4, align 4
  %187 = sext i32 %186 to i64
  %188 = getelementptr inbounds [46 x i32], [46 x i32]* %10, i64 0, i64 %187
  store i32 %185, i32* %188, align 4
  %189 = load i32, i32* %6, align 4
  %190 = load i32, i32* %4, align 4
  %191 = add nsw i32 %190, 1
  %192 = sext i32 %191 to i64
  %193 = getelementptr inbounds [46 x i32], [46 x i32]* %10, i64 0, i64 %192
  store i32 %189, i32* %193, align 4
  %194 = load i32, i32* %4, align 4
  %195 = sext i32 %194 to i64
  %196 = getelementptr inbounds [46 x i32], [46 x i32]* %11, i64 0, i64 %195
  %197 = load i32, i32* %196, align 4
  store i32 %197, i32* %6, align 4
  %198 = load i32, i32* %4, align 4
  %199 = add nsw i32 %198, 1
  %200 = sext i32 %199 to i64
  %201 = getelementptr inbounds [46 x i32], [46 x i32]* %11, i64 0, i64 %200
  %202 = load i32, i32* %201, align 4
  %203 = load i32, i32* %4, align 4
  %204 = sext i32 %203 to i64
  %205 = getelementptr inbounds [46 x i32], [46 x i32]* %11, i64 0, i64 %204
  store i32 %202, i32* %205, align 4
  %206 = load i32, i32* %6, align 4
  %207 = load i32, i32* %4, align 4
  %208 = add nsw i32 %207, 1
  %209 = sext i32 %208 to i64
  %210 = getelementptr inbounds [46 x i32], [46 x i32]* %11, i64 0, i64 %209
  store i32 %206, i32* %210, align 4
  br label %211

211:                                              ; preds = %159, %148
  br label %212

212:                                              ; preds = %211
  %213 = load i32, i32* %4, align 4
  %214 = add nsw i32 %213, 1
  store i32 %214, i32* %4, align 4
  br label %142

215:                                              ; preds = %142
  br label %216

216:                                              ; preds = %215
  %217 = load i32, i32* %3, align 4
  %218 = add nsw i32 %217, 1
  store i32 %218, i32* %3, align 4
  br label %137

219:                                              ; preds = %137
  store i32 1, i32* %3, align 4
  br label %220

220:                                              ; preds = %272, %219
  %221 = load i32, i32* %3, align 4
  %222 = load i32, i32* %5, align 4
  %223 = icmp sle i32 %221, %222
  br i1 %223, label %224, label %275

224:                                              ; preds = %220
  %225 = load i32, i32* %3, align 4
  %226 = sext i32 %225 to i64
  %227 = getelementptr inbounds [46 x i32], [46 x i32]* %10, i64 0, i64 %226
  %228 = load i32, i32* %227, align 4
  %229 = sext i32 %228 to i64
  %230 = getelementptr inbounds [101 x i32], [101 x i32]* %7, i64 0, i64 %229
  %231 = load i32, i32* %230, align 4
  %232 = load i32, i32* %3, align 4
  %233 = sext i32 %232 to i64
  %234 = getelementptr inbounds [46 x i32], [46 x i32]* %10, i64 0, i64 %233
  %235 = load i32, i32* %234, align 4
  %236 = sext i32 %235 to i64
  %237 = getelementptr inbounds [101 x i32], [101 x i32]* %8, i64 0, i64 %236
  %238 = load i32, i32* %237, align 4
  %239 = load i32, i32* %3, align 4
  %240 = sext i32 %239 to i64
  %241 = getelementptr inbounds [46 x i32], [46 x i32]* %10, i64 0, i64 %240
  %242 = load i32, i32* %241, align 4
  %243 = sext i32 %242 to i64
  %244 = getelementptr inbounds [101 x i32], [101 x i32]* %9, i64 0, i64 %243
  %245 = load i32, i32* %244, align 4
  %246 = load i32, i32* %3, align 4
  %247 = sext i32 %246 to i64
  %248 = getelementptr inbounds [46 x i32], [46 x i32]* %11, i64 0, i64 %247
  %249 = load i32, i32* %248, align 4
  %250 = sext i32 %249 to i64
  %251 = getelementptr inbounds [101 x i32], [101 x i32]* %7, i64 0, i64 %250
  %252 = load i32, i32* %251, align 4
  %253 = load i32, i32* %3, align 4
  %254 = sext i32 %253 to i64
  %255 = getelementptr inbounds [46 x i32], [46 x i32]* %11, i64 0, i64 %254
  %256 = load i32, i32* %255, align 4
  %257 = sext i32 %256 to i64
  %258 = getelementptr inbounds [101 x i32], [101 x i32]* %8, i64 0, i64 %257
  %259 = load i32, i32* %258, align 4
  %260 = load i32, i32* %3, align 4
  %261 = sext i32 %260 to i64
  %262 = getelementptr inbounds [46 x i32], [46 x i32]* %11, i64 0, i64 %261
  %263 = load i32, i32* %262, align 4
  %264 = sext i32 %263 to i64
  %265 = getelementptr inbounds [101 x i32], [101 x i32]* %9, i64 0, i64 %264
  %266 = load i32, i32* %265, align 4
  %267 = load i32, i32* %3, align 4
  %268 = sext i32 %267 to i64
  %269 = getelementptr inbounds [46 x double], [46 x double]* %12, i64 0, i64 %268
  %270 = load double, double* %269, align 8
  %271 = call i32 (i8*, ...) @printf(i8* getelementptr inbounds ([29 x i8], [29 x i8]* @.str.2, i64 0, i64 0), i32 %231, i32 %238, i32 %245, i32 %252, i32 %259, i32 %266, double %270)
  br label %272

272:                                              ; preds = %224
  %273 = load i32, i32* %3, align 4
  %274 = add nsw i32 %273, 1
  store i32 %274, i32* %3, align 4
  br label %220

275:                                              ; preds = %220
  ret i32 0
}

declare dso_local i32 @__isoc99_scanf(i8*, ...) #1

; Function Attrs: nounwind
declare dso_local double @sqrt(double) #2

declare dso_local i32 @printf(i8*, ...) #1


!llvm.module.flags = !{!0}
!llvm.ident = !{!1}

!0 = !{i32 1, !"wchar_size", i32 4}
!1 = !{!"clang version 10.0.0-4ubuntu1 "}
