; ModuleID = 'source-C-CXX/63/1894.c'
source_filename = "source-C-CXX/63/1894.c"
target datalayout = "e-m:e-p270:32:32-p271:32:32-p272:64:64-i64:64-f80:128-n8:16:32:64-S128"
target triple = "x86_64-pc-linux-gnu"

@.str = private unnamed_addr constant [3 x i8] c"%d\00", align 1
@.str.1 = private unnamed_addr constant [7 x i8] c"%d%d%d\00", align 1
@.str.2 = private unnamed_addr constant [29 x i8] c"(%d,%d,%d)-(%d,%d,%d)=%.2lf\0A\00", align 1

; Function Attrs: nofree nounwind sspstrong uwtable
define dso_local i32 @main() local_unnamed_addr #0 {
  %1 = alloca i32, align 4
  %2 = alloca [101 x i32], align 16
  %3 = alloca [101 x i32], align 16
  %4 = alloca [101 x i32], align 16
  %5 = alloca [46 x i32], align 16
  %6 = alloca [46 x i32], align 16
  %7 = alloca [46 x double], align 16
  %8 = bitcast i32* %1 to i8*
  call void @llvm.lifetime.start.p0i8(i64 4, i8* nonnull %8) #4
  %9 = bitcast [101 x i32]* %2 to i8*
  call void @llvm.lifetime.start.p0i8(i64 404, i8* nonnull %9) #4
  %10 = bitcast [101 x i32]* %3 to i8*
  call void @llvm.lifetime.start.p0i8(i64 404, i8* nonnull %10) #4
  %11 = bitcast [101 x i32]* %4 to i8*
  call void @llvm.lifetime.start.p0i8(i64 404, i8* nonnull %11) #4
  %12 = bitcast [46 x i32]* %5 to i8*
  call void @llvm.lifetime.start.p0i8(i64 184, i8* nonnull %12) #4
  %13 = bitcast [46 x i32]* %6 to i8*
  call void @llvm.lifetime.start.p0i8(i64 184, i8* nonnull %13) #4
  %14 = bitcast [46 x double]* %7 to i8*
  call void @llvm.lifetime.start.p0i8(i64 368, i8* nonnull %14) #4
  %15 = call i32 (i8*, ...) @__isoc99_scanf(i8* getelementptr inbounds ([3 x i8], [3 x i8]* @.str, i64 0, i64 0), i32* nonnull %1)
  %16 = load i32, i32* %1, align 4, !tbaa !5
  %17 = icmp slt i32 %16, 1
  br i1 %17, label %150, label %20

18:                                               ; preds = %20
  %19 = icmp sgt i32 %27, 1
  br i1 %19, label %43, label %150

20:                                               ; preds = %0, %20
  %21 = phi i64 [ %26, %20 ], [ 1, %0 ]
  %22 = getelementptr inbounds [101 x i32], [101 x i32]* %2, i64 0, i64 %21
  %23 = getelementptr inbounds [101 x i32], [101 x i32]* %3, i64 0, i64 %21
  %24 = getelementptr inbounds [101 x i32], [101 x i32]* %4, i64 0, i64 %21
  %25 = call i32 (i8*, ...) @__isoc99_scanf(i8* getelementptr inbounds ([7 x i8], [7 x i8]* @.str.1, i64 0, i64 0), i32* nonnull %22, i32* nonnull %23, i32* nonnull %24)
  %26 = add nuw nsw i64 %21, 1
  %27 = load i32, i32* %1, align 4, !tbaa !5
  %28 = sext i32 %27 to i64
  %29 = icmp slt i64 %21, %28
  br i1 %29, label %20, label %18, !llvm.loop !9

30:                                               ; preds = %57
  %31 = sext i32 %87 to i64
  %32 = trunc i64 %60 to i32
  br label %33

33:                                               ; preds = %30, %43
  %34 = phi i64 [ %31, %30 ], [ %52, %43 ]
  %35 = phi i32 [ %87, %30 ], [ %44, %43 ]
  %36 = phi i32 [ %32, %30 ], [ %47, %43 ]
  %37 = icmp slt i64 %48, %34
  %38 = add nuw nsw i64 %46, 1
  br i1 %37, label %43, label %39, !llvm.loop !11

39:                                               ; preds = %33
  %40 = icmp slt i32 %36, 1
  br i1 %40, label %150, label %41

41:                                               ; preds = %39
  %42 = getelementptr inbounds [46 x double], [46 x double]* %7, i64 0, i64 1
  br label %90

43:                                               ; preds = %18, %33
  %44 = phi i32 [ %35, %33 ], [ %27, %18 ]
  %45 = phi i64 [ %48, %33 ], [ 1, %18 ]
  %46 = phi i64 [ %38, %33 ], [ 2, %18 ]
  %47 = phi i32 [ %36, %33 ], [ 0, %18 ]
  %48 = add nuw nsw i64 %45, 1
  %49 = getelementptr inbounds [101 x i32], [101 x i32]* %2, i64 0, i64 %45
  %50 = getelementptr inbounds [101 x i32], [101 x i32]* %3, i64 0, i64 %45
  %51 = getelementptr inbounds [101 x i32], [101 x i32]* %4, i64 0, i64 %45
  %52 = sext i32 %44 to i64
  %53 = icmp slt i64 %45, %52
  br i1 %53, label %54, label %33

54:                                               ; preds = %43
  %55 = sext i32 %47 to i64
  %56 = trunc i64 %45 to i32
  br label %57

57:                                               ; preds = %54, %57
  %58 = phi i64 [ %55, %54 ], [ %60, %57 ]
  %59 = phi i64 [ %46, %54 ], [ %86, %57 ]
  %60 = add nsw i64 %58, 1
  %61 = load i32, i32* %49, align 4, !tbaa !5
  %62 = getelementptr inbounds [101 x i32], [101 x i32]* %2, i64 0, i64 %59
  %63 = load i32, i32* %62, align 4, !tbaa !5
  %64 = sub nsw i32 %61, %63
  %65 = sitofp i32 %64 to double
  %66 = fmul double %65, %65
  %67 = load i32, i32* %50, align 4, !tbaa !5
  %68 = getelementptr inbounds [101 x i32], [101 x i32]* %3, i64 0, i64 %59
  %69 = load i32, i32* %68, align 4, !tbaa !5
  %70 = sub nsw i32 %67, %69
  %71 = sitofp i32 %70 to double
  %72 = fmul double %71, %71
  %73 = fadd double %66, %72
  %74 = load i32, i32* %51, align 4, !tbaa !5
  %75 = getelementptr inbounds [101 x i32], [101 x i32]* %4, i64 0, i64 %59
  %76 = load i32, i32* %75, align 4, !tbaa !5
  %77 = sub nsw i32 %74, %76
  %78 = sitofp i32 %77 to double
  %79 = fmul double %78, %78
  %80 = fadd double %73, %79
  %81 = call double @sqrt(double %80) #4
  %82 = getelementptr inbounds [46 x double], [46 x double]* %7, i64 0, i64 %60
  store double %81, double* %82, align 8, !tbaa !12
  %83 = getelementptr inbounds [46 x i32], [46 x i32]* %5, i64 0, i64 %60
  store i32 %56, i32* %83, align 4, !tbaa !5
  %84 = getelementptr inbounds [46 x i32], [46 x i32]* %6, i64 0, i64 %60
  %85 = trunc i64 %59 to i32
  store i32 %85, i32* %84, align 4, !tbaa !5
  %86 = add nuw nsw i64 %59, 1
  %87 = load i32, i32* %1, align 4, !tbaa !5
  %88 = sext i32 %87 to i64
  %89 = icmp slt i64 %59, %88
  br i1 %89, label %57, label %30, !llvm.loop !14

90:                                               ; preds = %41, %121
  %91 = phi i32 [ %36, %41 ], [ %123, %121 ]
  %92 = phi i32 [ 1, %41 ], [ %122, %121 ]
  %93 = icmp sgt i32 %36, %92
  br i1 %93, label %94, label %121

94:                                               ; preds = %90
  %95 = zext i32 %91 to i64
  %96 = load double, double* %42, align 8, !tbaa !12
  br label %101

97:                                               ; preds = %121
  br i1 %40, label %150, label %98

98:                                               ; preds = %97
  %99 = add nuw i32 %36, 1
  %100 = zext i32 %99 to i64
  br label %125

101:                                              ; preds = %94, %118
  %102 = phi double [ %96, %94 ], [ %119, %118 ]
  %103 = phi i64 [ 1, %94 ], [ %104, %118 ]
  %104 = add nuw nsw i64 %103, 1
  %105 = getelementptr inbounds [46 x double], [46 x double]* %7, i64 0, i64 %104
  %106 = load double, double* %105, align 8, !tbaa !12
  %107 = fcmp olt double %102, %106
  br i1 %107, label %108, label %118

108:                                              ; preds = %101
  %109 = getelementptr inbounds [46 x double], [46 x double]* %7, i64 0, i64 %103
  store double %106, double* %109, align 8, !tbaa !12
  store double %102, double* %105, align 8, !tbaa !12
  %110 = getelementptr inbounds [46 x i32], [46 x i32]* %5, i64 0, i64 %103
  %111 = load i32, i32* %110, align 4, !tbaa !5
  %112 = getelementptr inbounds [46 x i32], [46 x i32]* %5, i64 0, i64 %104
  %113 = load i32, i32* %112, align 4, !tbaa !5
  store i32 %113, i32* %110, align 4, !tbaa !5
  store i32 %111, i32* %112, align 4, !tbaa !5
  %114 = getelementptr inbounds [46 x i32], [46 x i32]* %6, i64 0, i64 %103
  %115 = load i32, i32* %114, align 4, !tbaa !5
  %116 = getelementptr inbounds [46 x i32], [46 x i32]* %6, i64 0, i64 %104
  %117 = load i32, i32* %116, align 4, !tbaa !5
  store i32 %117, i32* %114, align 4, !tbaa !5
  store i32 %115, i32* %116, align 4, !tbaa !5
  br label %118

118:                                              ; preds = %101, %108
  %119 = phi double [ %106, %101 ], [ %102, %108 ]
  %120 = icmp eq i64 %104, %95
  br i1 %120, label %121, label %101, !llvm.loop !15

121:                                              ; preds = %118, %90
  %122 = add nuw i32 %92, 1
  %123 = add i32 %91, -1
  %124 = icmp eq i32 %92, %36
  br i1 %124, label %97, label %90, !llvm.loop !16

125:                                              ; preds = %98, %125
  %126 = phi i64 [ 1, %98 ], [ %148, %125 ]
  %127 = getelementptr inbounds [46 x i32], [46 x i32]* %5, i64 0, i64 %126
  %128 = load i32, i32* %127, align 4, !tbaa !5
  %129 = sext i32 %128 to i64
  %130 = getelementptr inbounds [101 x i32], [101 x i32]* %2, i64 0, i64 %129
  %131 = load i32, i32* %130, align 4, !tbaa !5
  %132 = getelementptr inbounds [101 x i32], [101 x i32]* %3, i64 0, i64 %129
  %133 = load i32, i32* %132, align 4, !tbaa !5
  %134 = getelementptr inbounds [101 x i32], [101 x i32]* %4, i64 0, i64 %129
  %135 = load i32, i32* %134, align 4, !tbaa !5
  %136 = getelementptr inbounds [46 x i32], [46 x i32]* %6, i64 0, i64 %126
  %137 = load i32, i32* %136, align 4, !tbaa !5
  %138 = sext i32 %137 to i64
  %139 = getelementptr inbounds [101 x i32], [101 x i32]* %2, i64 0, i64 %138
  %140 = load i32, i32* %139, align 4, !tbaa !5
  %141 = getelementptr inbounds [101 x i32], [101 x i32]* %3, i64 0, i64 %138
  %142 = load i32, i32* %141, align 4, !tbaa !5
  %143 = getelementptr inbounds [101 x i32], [101 x i32]* %4, i64 0, i64 %138
  %144 = load i32, i32* %143, align 4, !tbaa !5
  %145 = getelementptr inbounds [46 x double], [46 x double]* %7, i64 0, i64 %126
  %146 = load double, double* %145, align 8, !tbaa !12
  %147 = call i32 (i8*, ...) @printf(i8* nonnull dereferenceable(1) getelementptr inbounds ([29 x i8], [29 x i8]* @.str.2, i64 0, i64 0), i32 %131, i32 %133, i32 %135, i32 %140, i32 %142, i32 %144, double %146)
  %148 = add nuw nsw i64 %126, 1
  %149 = icmp eq i64 %148, %100
  br i1 %149, label %150, label %125, !llvm.loop !17

150:                                              ; preds = %125, %0, %18, %39, %97
  call void @llvm.lifetime.end.p0i8(i64 368, i8* nonnull %14) #4
  call void @llvm.lifetime.end.p0i8(i64 184, i8* nonnull %13) #4
  call void @llvm.lifetime.end.p0i8(i64 184, i8* nonnull %12) #4
  call void @llvm.lifetime.end.p0i8(i64 404, i8* nonnull %11) #4
  call void @llvm.lifetime.end.p0i8(i64 404, i8* nonnull %10) #4
  call void @llvm.lifetime.end.p0i8(i64 404, i8* nonnull %9) #4
  call void @llvm.lifetime.end.p0i8(i64 4, i8* nonnull %8) #4
  ret i32 0
}

; Function Attrs: argmemonly mustprogress nofree nosync nounwind willreturn
declare void @llvm.lifetime.start.p0i8(i64 immarg, i8* nocapture) #1

; Function Attrs: nofree nounwind
declare noundef i32 @__isoc99_scanf(i8* nocapture noundef readonly, ...) local_unnamed_addr #2

; Function Attrs: mustprogress nofree nounwind willreturn
declare double @sqrt(double) local_unnamed_addr #3

; Function Attrs: nofree nounwind
declare noundef i32 @printf(i8* nocapture noundef readonly, ...) local_unnamed_addr #2

; Function Attrs: argmemonly mustprogress nofree nosync nounwind willreturn
declare void @llvm.lifetime.end.p0i8(i64 immarg, i8* nocapture) #1


!llvm.module.flags = !{!0, !1, !2, !3}
!llvm.ident = !{!4}

!0 = !{i32 1, !"wchar_size", i32 4}
!1 = !{i32 7, !"PIC Level", i32 2}
!2 = !{i32 7, !"PIE Level", i32 2}
!3 = !{i32 7, !"uwtable", i32 1}
!4 = !{!"clang version 13.0.0"}
!5 = !{!6, !6, i64 0}
!6 = !{!"int", !7, i64 0}
!7 = !{!"omnipotent char", !8, i64 0}
!8 = !{!"Simple C/C++ TBAA"}
!9 = distinct !{!9, !10}
!10 = !{!"llvm.loop.mustprogress"}
!11 = distinct !{!11, !10}
!12 = !{!13, !13, i64 0}
!13 = !{!"double", !7, i64 0}
!14 = distinct !{!14, !10}
!15 = distinct !{!15, !10}
!16 = distinct !{!16, !10}
!17 = distinct !{!17, !10}
